target datalayout = "e-m:e-p270:32:32-p271:32:32-p272:64:64-i64:64-i128:128-f80:128-n8:16:32:64-S128"
target triple = "x86_64-pc-linux-gnu"

@ECPKPARAMETERS_it.local_it = internal constant { i8, [7 x i8], i64, ptr, i64, ptr, i64, ptr } { i8 2, [7 x i8] zeroinitializer, i64 0, ptr @ECPKPARAMETERS_ch_tt, i64 3, ptr null, i64 16, ptr @.str.1 }, align 8
@.str.2 = private unnamed_addr constant [31 x i8] c"../openssl/crypto/ec/ec_asn1.c\00", align 1
@__func__.i2d_ECPKParameters = private unnamed_addr constant [19 x i8] c"i2d_ECPKParameters\00", align 1

; Function Attrs: nounwind uwtable
define ptr @ECPKPARAMETERS_it() #0 {
  ret ptr @ECPKPARAMETERS_it.local_it
}

; Function Attrs: nounwind uwtable
define void @ECPKPARAMETERS_free(ptr noundef %0) #0 {
  %2 = alloca ptr, align 8
  store ptr %0, ptr %2, align 8, !tbaa !18
  %3 = load ptr, ptr %2, align 8, !tbaa !18
  %4 = call ptr @ECPKPARAMETERS_it()
  call void @ASN1_item_free(ptr noundef %3, ptr noundef %4)
  ret void
}

; Function Attrs: nounwind uwtable
define i32 @i2d_ECPKPARAMETERS(ptr noundef %0, ptr noundef %1) #0 {
  %3 = alloca ptr, align 8
  %4 = alloca ptr, align 8
  store ptr %0, ptr %3, align 8, !tbaa !18
  store ptr %1, ptr %4, align 8, !tbaa !14
  %5 = load ptr, ptr %3, align 8, !tbaa !18
  %6 = load ptr, ptr %4, align 8, !tbaa !14
  %7 = call ptr @ECPKPARAMETERS_it()
  %8 = call i32 @ASN1_item_i2d(ptr noundef %5, ptr noundef %6, ptr noundef %7)
  ret i32 %8
}

; Function Attrs: nounwind uwtable
define i32 @i2d_ECPKParameters(ptr noundef %0, ptr noundef %1) #0 {
  %3 = alloca i32, align 4
  %4 = alloca ptr, align 8
  %5 = alloca ptr, align 8
  %6 = alloca i32, align 4
  %7 = alloca ptr, align 8
  %8 = alloca i32, align 4
  store ptr %0, ptr %4, align 8, !tbaa !24
  store ptr %1, ptr %5, align 8, !tbaa !14
  call void @llvm.lifetime.start.p0(i64 4, ptr %6) #4
  store i32 0, ptr %6, align 4, !tbaa !38
  call void @llvm.lifetime.start.p0(i64 8, ptr %7) #4
  %9 = load ptr, ptr %4, align 8, !tbaa !24
  %10 = call ptr @EC_GROUP_get_ecpkparameters(ptr noundef %9, ptr noundef null)
  store ptr %10, ptr %7, align 8, !tbaa !18
  %11 = load ptr, ptr %7, align 8, !tbaa !18
  %12 = icmp eq ptr %11, null
  br i1 %12, label %13, label %14

13:                                               ; preds = %2
  call void @ERR_new()
  call void @ERR_set_debug(ptr noundef @.str.2, i32 noundef 919, ptr noundef @__func__.i2d_ECPKParameters)
  call void (i32, i32, ptr, ...) @ERR_set_error(i32 noundef 16, i32 noundef 120, ptr noundef null)
  store i32 0, ptr %3, align 4
  store i32 1, ptr %8, align 4
  br label %24

14:                                               ; preds = %2
  %15 = load ptr, ptr %7, align 8, !tbaa !18
  %16 = load ptr, ptr %5, align 8, !tbaa !14
  %17 = call i32 @i2d_ECPKPARAMETERS(ptr noundef %15, ptr noundef %16)
  store i32 %17, ptr %6, align 4, !tbaa !38
  %18 = icmp eq i32 %17, 0
  br i1 %18, label %19, label %21

19:                                               ; preds = %14
  call void @ERR_new()
  call void @ERR_set_debug(ptr noundef @.str.2, i32 noundef 923, ptr noundef @__func__.i2d_ECPKParameters)
  call void (i32, i32, ptr, ...) @ERR_set_error(i32 noundef 16, i32 noundef 121, ptr noundef null)
  %20 = load ptr, ptr %7, align 8, !tbaa !18
  call void @ECPKPARAMETERS_free(ptr noundef %20)
  store i32 0, ptr %3, align 4
  store i32 1, ptr %8, align 4
  br label %24

21:                                               ; preds = %14
  %22 = load ptr, ptr %7, align 8, !tbaa !18
  call void @ECPKPARAMETERS_free(ptr noundef %22)
  %23 = load i32, ptr %6, align 4, !tbaa !38
  store i32 %23, ptr %3, align 4
  store i32 1, ptr %8, align 4
  br label %24

24:                                               ; preds = %21, %19, %13
  call void @llvm.lifetime.end.p0(i64 8, ptr %7) #4
  call void @llvm.lifetime.end.p0(i64 4, ptr %6) #4
  %25 = load i32, ptr %3, align 4
  ret i32 %25
}