; Function Attrs: nounwind uwtable
define i32 @i2d_ECPKParameters(ptr noundef %0, ptr noundef %1) local_unnamed_addr #0 {
  %3 = tail call ptr @EC_GROUP_get_ecpkparameters(ptr noundef %0, ptr noundef null)
  %4 = icmp eq ptr %3, null
  br i1 %4, label %5, label %6

5:                                                ; preds = %2
  tail call void @ERR_new() #8
  tail call void @ERR_set_debug(ptr noundef nonnull @.str.2, i32 noundef 919, ptr noundef nonnull @__func__.i2d_ECPKParameters) #8
  tail call void (i32, i32, ptr, ...) @ERR_set_error(i32 noundef 16, i32 noundef 120, ptr noundef null) #8
  br label %11

6:                                                ; preds = %2
  %7 = tail call i32 @ASN1_item_i2d(ptr noundef nonnull %3, ptr noundef %1, ptr noundef nonnull @ECPKPARAMETERS_it.local_it) #8
  %8 = icmp eq i32 %7, 0
  br i1 %8, label %9, label %10

9:                                                ; preds = %6
  tail call void @ERR_new() #8
  tail call void @ERR_set_debug(ptr noundef nonnull @.str.2, i32 noundef 923, ptr noundef nonnull @__func__.i2d_ECPKParameters) #8
  tail call void (i32, i32, ptr, ...) @ERR_set_error(i32 noundef 16, i32 noundef 121, ptr noundef null) #8
  tail call void @ASN1_item_free(ptr noundef nonnull %3, ptr noundef nonnull @ECPKPARAMETERS_it.local_it) #8
  br label %11

10:                                               ; preds = %6
  tail call void @ASN1_item_free(ptr noundef nonnull %3, ptr noundef nonnull @ECPKPARAMETERS_it.local_it) #8
  br label %11

11:                                               ; preds = %10, %9, %5
  %.0 = phi i32 [ 0, %5 ], [ 0, %9 ], [ %7, %10 ]
  ret i32 %.0
}